target datalayout = "e-m:e-p270:32:32-p271:32:32-p272:64:64-i64:64-i128:128-f80:128-n8:16:32:64-S128"
target triple = "x86_64-pc-linux-gnu"

%struct.opj_tcd = type { i32, i32, i32, i32, i32, ptr, ptr, ptr, ptr, i32, i8, ptr, i32, i32, i32, i32, i32, ptr }
%struct.opj_tcd_image = type { ptr }
%struct.opj_image = type { i32, i32, i32, i32, i32, i32, ptr, ptr, i32 }
%struct.opj_tcd_tile = type { i32, i32, i32, i32, i32, ptr, i64, double, [100 x double], i32 }
%struct.opj_tcd_tilecomp = type { i32, i32, i32, i32, i32, i32, i32, ptr, i32, ptr, i32, i64, i64, ptr, i32, i32, i32, i32, i64 }
%struct.opj_image_comp = type { i32, i32, i32, i32, i32, i32, i32, i32, i32, i32, i32, ptr, i16 }

; Function Attrs: nounwind uwtable
define hidden i64 @opj_tcd_get_encoder_input_buffer_size(ptr noundef %0) #0 {
  %2 = alloca ptr, align 8
  %3 = alloca i32, align 4
  %4 = alloca i64, align 8
  %5 = alloca ptr, align 8
  %6 = alloca ptr, align 8
  %7 = alloca i32, align 4
  %8 = alloca i32, align 4
  store ptr %0, ptr %2, align 8, !tbaa !7
  call void @llvm.lifetime.start.p0(i64 4, ptr %3) #8
  call void @llvm.lifetime.start.p0(i64 8, ptr %4) #8
  store i64 0, ptr %4, align 8, !tbaa !72
  call void @llvm.lifetime.start.p0(i64 8, ptr %5) #8
  store ptr null, ptr %5, align 8, !tbaa !76
  call void @llvm.lifetime.start.p0(i64 8, ptr %6) #8
  store ptr null, ptr %6, align 8, !tbaa !41
  call void @llvm.lifetime.start.p0(i64 4, ptr %7) #8
  call void @llvm.lifetime.start.p0(i64 4, ptr %8) #8
  %9 = load ptr, ptr %2, align 8, !tbaa !7
  %10 = getelementptr inbounds nuw %struct.opj_tcd, ptr %9, i32 0, i32 5
  %11 = load ptr, ptr %10, align 8, !tbaa !10
  %12 = getelementptr inbounds nuw %struct.opj_tcd_image, ptr %11, i32 0, i32 0
  %13 = load ptr, ptr %12, align 8, !tbaa !23
  %14 = getelementptr inbounds nuw %struct.opj_tcd_tile, ptr %13, i32 0, i32 5
  %15 = load ptr, ptr %14, align 8, !tbaa !30
  store ptr %15, ptr %6, align 8, !tbaa !41
  %16 = load ptr, ptr %2, align 8, !tbaa !7
  %17 = getelementptr inbounds nuw %struct.opj_tcd, ptr %16, i32 0, i32 6
  %18 = load ptr, ptr %17, align 8, !tbaa !21
  %19 = getelementptr inbounds nuw %struct.opj_image, ptr %18, i32 0, i32 6
  %20 = load ptr, ptr %19, align 8, !tbaa !89
  store ptr %20, ptr %5, align 8, !tbaa !76
  store i32 0, ptr %3, align 4, !tbaa !3
  br label %21

21:                                               ; preds = %74, %1
  %22 = load i32, ptr %3, align 4, !tbaa !3
  %23 = load ptr, ptr %2, align 8, !tbaa !7
  %24 = getelementptr inbounds nuw %struct.opj_tcd, ptr %23, i32 0, i32 6
  %25 = load ptr, ptr %24, align 8, !tbaa !21
  %26 = getelementptr inbounds nuw %struct.opj_image, ptr %25, i32 0, i32 4
  %27 = load i32, ptr %26, align 8, !tbaa !26
  %28 = icmp ult i32 %22, %27
  br i1 %28, label %29, label %77

29:                                               ; preds = %21
  %30 = load ptr, ptr %5, align 8, !tbaa !76
  %31 = getelementptr inbounds nuw %struct.opj_image_comp, ptr %30, i32 0, i32 6
  %32 = load i32, ptr %31, align 8, !tbaa !136
  %33 = lshr i32 %32, 3
  store i32 %33, ptr %7, align 4, !tbaa !3
  %34 = load ptr, ptr %5, align 8, !tbaa !76
  %35 = getelementptr inbounds nuw %struct.opj_image_comp, ptr %34, i32 0, i32 6
  %36 = load i32, ptr %35, align 8, !tbaa !136
  %37 = and i32 %36, 7
  store i32 %37, ptr %8, align 4, !tbaa !3
  %38 = load i32, ptr %8, align 4, !tbaa !3
  %39 = icmp ne i32 %38, 0
  br i1 %39, label %40, label %43

40:                                               ; preds = %29
  %41 = load i32, ptr %7, align 4, !tbaa !3
  %42 = add i32 %41, 1
  store i32 %42, ptr %7, align 4, !tbaa !3
  br label %43

43:                                               ; preds = %40, %29
  %44 = load i32, ptr %7, align 4, !tbaa !3
  %45 = icmp eq i32 %44, 3
  br i1 %45, label %46, label %47

46:                                               ; preds = %43
  store i32 4, ptr %7, align 4, !tbaa !3
  br label %47

47:                                               ; preds = %46, %43
  %48 = load i32, ptr %7, align 4, !tbaa !3
  %49 = zext i32 %48 to i64
  %50 = load ptr, ptr %6, align 8, !tbaa !41
  %51 = getelementptr inbounds nuw %struct.opj_tcd_tilecomp, ptr %50, i32 0, i32 2
  %52 = load i32, ptr %51, align 8, !tbaa !111
  %53 = load ptr, ptr %6, align 8, !tbaa !41
  %54 = getelementptr inbounds nuw %struct.opj_tcd_tilecomp, ptr %53, i32 0, i32 0
  %55 = load i32, ptr %54, align 8, !tbaa !108
  %56 = sub nsw i32 %52, %55
  %57 = sext i32 %56 to i64
  %58 = load ptr, ptr %6, align 8, !tbaa !41
  %59 = getelementptr inbounds nuw %struct.opj_tcd_tilecomp, ptr %58, i32 0, i32 3
  %60 = load i32, ptr %59, align 4, !tbaa !112
  %61 = load ptr, ptr %6, align 8, !tbaa !41
  %62 = getelementptr inbounds nuw %struct.opj_tcd_tilecomp, ptr %61, i32 0, i32 1
  %63 = load i32, ptr %62, align 4, !tbaa !110
  %64 = sub nsw i32 %60, %63
  %65 = sext i32 %64 to i64
  %66 = mul i64 %57, %65
  %67 = mul i64 %49, %66
  %68 = load i64, ptr %4, align 8, !tbaa !72
  %69 = add i64 %68, %67
  store i64 %69, ptr %4, align 8, !tbaa !72
  %70 = load ptr, ptr %5, align 8, !tbaa !76
  %71 = getelementptr inbounds nuw %struct.opj_image_comp, ptr %70, i32 1
  store ptr %71, ptr %5, align 8, !tbaa !76
  %72 = load ptr, ptr %6, align 8, !tbaa !41
  %73 = getelementptr inbounds nuw %struct.opj_tcd_tilecomp, ptr %72, i32 1
  store ptr %73, ptr %6, align 8, !tbaa !41
  br label %74

74:                                               ; preds = %47
  %75 = load i32, ptr %3, align 4, !tbaa !3
  %76 = add i32 %75, 1
  store i32 %76, ptr %3, align 4, !tbaa !3
  br label %21, !llvm.loop !259

77:                                               ; preds = %21
  %78 = load i64, ptr %4, align 8, !tbaa !72
  call void @llvm.lifetime.end.p0(i64 4, ptr %8) #8
  call void @llvm.lifetime.end.p0(i64 4, ptr %7) #8
  call void @llvm.lifetime.end.p0(i64 8, ptr %6) #8
  call void @llvm.lifetime.end.p0(i64 8, ptr %5) #8
  call void @llvm.lifetime.end.p0(i64 8, ptr %4) #8
  call void @llvm.lifetime.end.p0(i64 4, ptr %3) #8
  ret i64 %78
}