; Function Attrs: nofree norecurse nosync nounwind memory(read, inaccessiblemem: none) uwtable
define hidden i64 @opj_tcd_get_encoder_input_buffer_size(ptr noundef readonly captures(none) %0) local_unnamed_addr #6 {
  %2 = getelementptr inbounds nuw i8, ptr %0, i64 32
  %3 = load ptr, ptr %2, align 8, !tbaa !15
  %4 = getelementptr inbounds nuw i8, ptr %3, i64 16
  %5 = load i32, ptr %4, align 8, !tbaa !20
  %.not26 = icmp eq i32 %5, 0
  br i1 %.not26, label %._crit_edge, label %.lr.ph.preheader

.lr.ph.preheader:                                 ; preds = %1
  %6 = getelementptr inbounds nuw i8, ptr %3, i64 24
  %7 = load ptr, ptr %6, align 8, !tbaa !69
  %8 = getelementptr inbounds nuw i8, ptr %0, i64 24
  %9 = load ptr, ptr %8, align 8, !tbaa !3
  %10 = load ptr, ptr %9, align 8, !tbaa !17
  %11 = getelementptr inbounds nuw i8, ptr %10, i64 24
  %12 = load ptr, ptr %11, align 8, !tbaa !24
  br label %.lr.ph

.lr.ph:                                           ; preds = %.lr.ph.preheader, %.lr.ph
  %.025 = phi i32 [ %36, %.lr.ph ], [ 0, %.lr.ph.preheader ]
  %.01924 = phi ptr [ %35, %.lr.ph ], [ %12, %.lr.ph.preheader ]
  %.02023 = phi ptr [ %34, %.lr.ph ], [ %7, %.lr.ph.preheader ]
  %.02122 = phi i64 [ %33, %.lr.ph ], [ 0, %.lr.ph.preheader ]
  %13 = getelementptr inbounds nuw i8, ptr %.02023, i64 24
  %14 = load i32, ptr %13, align 8, !tbaa !113
  %15 = lshr i32 %14, 3
  %16 = and i32 %14, 7
  %.not = icmp ne i32 %16, 0
  %17 = zext i1 %.not to i32
  %spec.select = add nuw nsw i32 %15, %17
  %18 = icmp eq i32 %spec.select, 3
  %spec.store.select = select i1 %18, i32 4, i32 %spec.select
  %19 = zext nneg i32 %spec.store.select to i64
  %20 = getelementptr inbounds nuw i8, ptr %.01924, i64 8
  %21 = load i32, ptr %20, align 8, !tbaa !91
  %22 = load i32, ptr %.01924, align 8, !tbaa !88
  %23 = sub nsw i32 %21, %22
  %24 = sext i32 %23 to i64
  %25 = getelementptr inbounds nuw i8, ptr %.01924, i64 12
  %26 = load i32, ptr %25, align 4, !tbaa !92
  %27 = getelementptr inbounds nuw i8, ptr %.01924, i64 4
  %28 = load i32, ptr %27, align 4, !tbaa !90
  %29 = sub nsw i32 %26, %28
  %30 = sext i32 %29 to i64
  %31 = mul nsw i64 %30, %24
  %32 = mul i64 %31, %19
  %33 = add i64 %32, %.02122
  %34 = getelementptr inbounds nuw i8, ptr %.02023, i64 64
  %35 = getelementptr inbounds nuw i8, ptr %.01924, i64 112
  %36 = add nuw i32 %.025, 1
  %exitcond.not = icmp eq i32 %36, %5
  br i1 %exitcond.not, label %._crit_edge, label %.lr.ph, !llvm.loop !262

._crit_edge:                                      ; preds = %.lr.ph, %1
  %.021.lcssa = phi i64 [ 0, %1 ], [ %33, %.lr.ph ]
  ret i64 %.021.lcssa
}